; Function Attrs: nounwind sspstrong uwtable
define internal range(i64 1, -7) i64 @ossl_ssl_session_initialize_copy(i64 noundef returned %0, i64 noundef %1) #0 {
  %3 = icmp eq i64 %0, 0
  %4 = and i64 %0, 7
  %5 = icmp ne i64 %4, 0
  %6 = or i1 %3, %5
  br i1 %6, label %RB_OBJ_FROZEN.exit.thread.i, label %RB_FL_ABLE.exit.i.i, !prof !15

RB_FL_ABLE.exit.i.i:                              ; preds = %2
  %7 = inttoptr i64 %0 to ptr
  %8 = load i64, ptr %7, align 8, !tbaa !16
  %9 = and i64 %8, 31
  %.not.i.i = icmp eq i64 %9, 27
  %10 = and i64 %8, 2048
  %11 = icmp ne i64 %10, 0
  %or.cond.i = or i1 %.not.i.i, %11
  br i1 %or.cond.i, label %RB_OBJ_FROZEN.exit.thread.i, label %rbimpl_RB_TYPE_P_fastpath.exit.i, !prof !17

RB_OBJ_FROZEN.exit.thread.i:                      ; preds = %RB_FL_ABLE.exit.i.i, %2
  tail call void @rb_error_frozen_object(i64 noundef %0) #5
  unreachable

rbimpl_RB_TYPE_P_fastpath.exit.i:                 ; preds = %RB_FL_ABLE.exit.i.i
  %12 = icmp ne i64 %9, 5
  %13 = and i64 %8, 49152
  %.not.i = icmp eq i64 %13, 0
  %or.cond8.i = or i1 %12, %.not.i
  br i1 %or.cond8.i, label %rb_check_frozen_inline.exit, label %14, !prof !18

14:                                               ; preds = %rbimpl_RB_TYPE_P_fastpath.exit.i
  tail call void @rb_str_modify(i64 noundef %0) #4
  br label %rb_check_frozen_inline.exit

rb_check_frozen_inline.exit:                      ; preds = %rbimpl_RB_TYPE_P_fastpath.exit.i, %14
  %15 = getelementptr inbounds nuw i8, ptr %7, i64 32
  %16 = load ptr, ptr %15, align 8, !tbaa !10
  %17 = tail call ptr @rb_check_typeddata(i64 noundef %1, ptr noundef nonnull @ossl_ssl_session_type) #4
  %.not = icmp eq ptr %17, null
  br i1 %.not, label %18, label %20

18:                                               ; preds = %rb_check_frozen_inline.exit
  %19 = load i64, ptr @rb_eRuntimeError, align 8, !tbaa !6
  tail call void (i64, ptr, ...) @ossl_raise(i64 noundef %19, ptr noundef nonnull @.str.18) #5
  unreachable

20:                                               ; preds = %rb_check_frozen_inline.exit
  %21 = tail call ptr @ASN1_dup(ptr noundef nonnull @i2d_SSL_SESSION, ptr noundef nonnull @d2i_SSL_SESSION, ptr noundef nonnull %17) #4
  %.not10 = icmp eq ptr %21, null
  br i1 %.not10, label %22, label %24

22:                                               ; preds = %20
  %23 = load i64, ptr @eSSLSession, align 8, !tbaa !6
  tail call void (i64, ptr, ...) @ossl_raise(i64 noundef %23, ptr noundef nonnull @.str.19) #5
  unreachable

24:                                               ; preds = %20
  store ptr %21, ptr %15, align 8, !tbaa !10
  tail call void @SSL_SESSION_free(ptr noundef %16) #4
  ret i64 %0
}